target datalayout = "e-m:e-p270:32:32-p271:32:32-p272:64:64-i64:64-i128:128-f80:128-n8:16:32:64-S128"
target triple = "x86_64-pc-linux-gnu"

; Function Attrs: inlinehint mustprogress uwtable
define internal void @_ZN12_GLOBAL__N_114appendMultipleERN6icu_7713UnicodeStringEii(ptr noundef nonnull align 8 dereferenceable(64) %0, i32 noundef %1, i32 noundef %2) #3 {
  %4 = alloca ptr, align 8
  %5 = alloca i32, align 4
  %6 = alloca i32, align 4
  %7 = alloca i32, align 4
  store ptr %0, ptr %4, align 8, !tbaa !27
  store i32 %1, ptr %5, align 4, !tbaa !14
  store i32 %2, ptr %6, align 4, !tbaa !14
  call void @llvm.lifetime.start.p0(i64 4, ptr %7) #14
  store i32 0, ptr %7, align 4, !tbaa !14
  br label %8

8:                                                ; preds = %17, %3
  %9 = load i32, ptr %7, align 4, !tbaa !14
  %10 = load i32, ptr %6, align 4, !tbaa !14
  %11 = icmp slt i32 %9, %10
  br i1 %11, label %13, label %12

12:                                               ; preds = %8
  call void @llvm.lifetime.end.p0(i64 4, ptr %7) #14
  br label %20

13:                                               ; preds = %8
  %14 = load ptr, ptr %4, align 8, !tbaa !27
  %15 = load i32, ptr %5, align 4, !tbaa !14
  %16 = call noundef nonnull align 8 dereferenceable(64) ptr @_ZN6icu_7713UnicodeString6appendEi(ptr noundef nonnull align 8 dereferenceable(64) %14, i32 noundef %15)
  br label %17

17:                                               ; preds = %13
  %18 = load i32, ptr %7, align 4, !tbaa !14
  %19 = add nsw i32 %18, 1
  store i32 %19, ptr %7, align 4, !tbaa !14
  br label %8, !llvm.loop !199

20:                                               ; preds = %12
  ret void
}

; Function Attrs: inlinehint mustprogress uwtable
define linkonce_odr noundef nonnull align 8 dereferenceable(64) ptr @_ZN6icu_7713UnicodeString6appendEDs(ptr noundef nonnull align 8 dereferenceable(64) %0, i16 noundef zeroext %1) #3 comdat align 2 {
  %3 = alloca ptr, align 8
  %4 = alloca i16, align 2
  store ptr %0, ptr %3, align 8, !tbaa !27
  store i16 %1, ptr %4, align 2, !tbaa !49
  %5 = load ptr, ptr %3, align 8
  %6 = call noundef nonnull align 8 dereferenceable(64) ptr @_ZN6icu_7713UnicodeString8doAppendEPKDsii(ptr noundef nonnull align 8 dereferenceable(64) %5, ptr noundef %4, i32 noundef 0, i32 noundef 1)
  ret ptr %6
}

; Function Attrs: mustprogress uwtable
define void @_ZN6icu_776number4impl17blueprint_helpers26generateIntegerWidthOptionEiiRNS_13UnicodeStringER10UErrorCode(i32 noundef %0, i32 noundef %1, ptr noundef nonnull align 8 dereferenceable(64) %2, ptr noundef nonnull align 4 dereferenceable(4) %3) #1 {
  %5 = alloca i32, align 4
  %6 = alloca i32, align 4
  %7 = alloca ptr, align 8
  %8 = alloca ptr, align 8
  store i32 %0, ptr %5, align 4, !tbaa !14
  store i32 %1, ptr %6, align 4, !tbaa !14
  store ptr %2, ptr %7, align 8, !tbaa !27
  store ptr %3, ptr %8, align 8, !tbaa !22
  %9 = load i32, ptr %6, align 4, !tbaa !14
  %10 = icmp eq i32 %9, -1
  br i1 %10, label %11, label %14

11:                                               ; preds = %4
  %12 = load ptr, ptr %7, align 8, !tbaa !27
  %13 = call noundef nonnull align 8 dereferenceable(64) ptr @_ZN6icu_7713UnicodeString6appendEDs(ptr noundef nonnull align 8 dereferenceable(64) %12, i16 noundef zeroext 42)
  br label %19

14:                                               ; preds = %4
  %15 = load ptr, ptr %7, align 8, !tbaa !27
  %16 = load i32, ptr %6, align 4, !tbaa !14
  %17 = load i32, ptr %5, align 4, !tbaa !14
  %18 = sub nsw i32 %16, %17
  call void @_ZN12_GLOBAL__N_114appendMultipleERN6icu_7713UnicodeStringEii(ptr noundef nonnull align 8 dereferenceable(64) %15, i32 noundef 35, i32 noundef %18)
  br label %19

19:                                               ; preds = %14, %11
  %20 = load ptr, ptr %7, align 8, !tbaa !27
  %21 = load i32, ptr %5, align 4, !tbaa !14
  call void @_ZN12_GLOBAL__N_114appendMultipleERN6icu_7713UnicodeStringEii(ptr noundef nonnull align 8 dereferenceable(64) %20, i32 noundef 48, i32 noundef %21)
  ret void
}