; Function Attrs: mustprogress uwtable
define void @_ZN6icu_776number4impl17blueprint_helpers26generateIntegerWidthOptionEiiRNS_13UnicodeStringER10UErrorCode(i32 noundef %0, i32 noundef %1, ptr noundef nonnull align 8 dereferenceable(64) %2, ptr noundef nonnull readnone align 4 captures(none) dereferenceable(4) %3) local_unnamed_addr #1 {
  %5 = alloca i16, align 2
  %6 = icmp eq i32 %1, -1
  br i1 %6, label %7, label %9

7:                                                ; preds = %4
  call void @llvm.lifetime.start.p0(i64 2, ptr nonnull %5)
  store i16 42, ptr %5, align 2, !tbaa !19
  %8 = call noundef nonnull align 8 dereferenceable(64) ptr @_ZN6icu_7713UnicodeString8doAppendEPKDsii(ptr noundef nonnull align 8 dereferenceable(64) %2, ptr noundef nonnull %5, i32 noundef 0, i32 noundef 1)
  call void @llvm.lifetime.end.p0(i64 2, ptr nonnull %5)
  br label %_ZN12_GLOBAL__N_114appendMultipleERN6icu_7713UnicodeStringEii.exit

9:                                                ; preds = %4
  %10 = sub nsw i32 %1, %0
  %11 = icmp sgt i32 %10, 0
  br i1 %11, label %.lr.ph.i, label %_ZN12_GLOBAL__N_114appendMultipleERN6icu_7713UnicodeStringEii.exit

.lr.ph.i:                                         ; preds = %9, %.lr.ph.i
  %.04.i = phi i32 [ %13, %.lr.ph.i ], [ 0, %9 ]
  %12 = tail call noundef nonnull align 8 dereferenceable(64) ptr @_ZN6icu_7713UnicodeString6appendEi(ptr noundef nonnull align 8 dereferenceable(64) %2, i32 noundef 35)
  %13 = add nuw nsw i32 %.04.i, 1
  %exitcond.not.i = icmp eq i32 %13, %10
  br i1 %exitcond.not.i, label %_ZN12_GLOBAL__N_114appendMultipleERN6icu_7713UnicodeStringEii.exit, label %.lr.ph.i, !llvm.loop !131

_ZN12_GLOBAL__N_114appendMultipleERN6icu_7713UnicodeStringEii.exit: ; preds = %.lr.ph.i, %9, %7
  %14 = icmp sgt i32 %0, 0
  br i1 %14, label %.lr.ph.i6, label %_ZN12_GLOBAL__N_114appendMultipleERN6icu_7713UnicodeStringEii.exit9

.lr.ph.i6:                                        ; preds = %_ZN12_GLOBAL__N_114appendMultipleERN6icu_7713UnicodeStringEii.exit, %.lr.ph.i6
  %.04.i7 = phi i32 [ %16, %.lr.ph.i6 ], [ 0, %_ZN12_GLOBAL__N_114appendMultipleERN6icu_7713UnicodeStringEii.exit ]
  %15 = call noundef nonnull align 8 dereferenceable(64) ptr @_ZN6icu_7713UnicodeString6appendEi(ptr noundef nonnull align 8 dereferenceable(64) %2, i32 noundef 48)
  %16 = add nuw nsw i32 %.04.i7, 1
  %exitcond.not.i8 = icmp eq i32 %16, %0
  br i1 %exitcond.not.i8, label %_ZN12_GLOBAL__N_114appendMultipleERN6icu_7713UnicodeStringEii.exit9, label %.lr.ph.i6, !llvm.loop !131

_ZN12_GLOBAL__N_114appendMultipleERN6icu_7713UnicodeStringEii.exit9: ; preds = %.lr.ph.i6, %_ZN12_GLOBAL__N_114appendMultipleERN6icu_7713UnicodeStringEii.exit
  ret void
}